; Function Attrs: nounwind uwtable
define hidden void @BrotliDecoderStateCleanup(ptr noundef captures(none) %0) local_unnamed_addr #0 {
  %2 = getelementptr inbounds nuw i8, ptr %0, i64 56
  %3 = load ptr, ptr %2, align 8, !tbaa !16
  %4 = getelementptr inbounds nuw i8, ptr %0, i64 64
  %5 = load ptr, ptr %4, align 8, !tbaa !17
  %6 = getelementptr inbounds nuw i8, ptr %0, i64 792
  %7 = load ptr, ptr %6, align 8, !tbaa !36
  tail call void %3(ptr noundef %5, ptr noundef %7) #4
  store ptr null, ptr %6, align 8, !tbaa !36
  %8 = load ptr, ptr %2, align 8, !tbaa !16
  %9 = load ptr, ptr %4, align 8, !tbaa !17
  %10 = getelementptr inbounds nuw i8, ptr %0, i64 784
  %11 = load ptr, ptr %10, align 8, !tbaa !37
  tail call void %8(ptr noundef %9, ptr noundef %11) #4
  store ptr null, ptr %10, align 8, !tbaa !37
  %12 = load ptr, ptr %2, align 8, !tbaa !16
  %13 = load ptr, ptr %4, align 8, !tbaa !17
  %14 = getelementptr inbounds nuw i8, ptr %0, i64 408
  %15 = load ptr, ptr %14, align 8, !tbaa !26
  tail call void %12(ptr noundef %13, ptr noundef %15) #4
  store ptr null, ptr %14, align 8, !tbaa !26
  %16 = load ptr, ptr %2, align 8, !tbaa !16
  %17 = load ptr, ptr %4, align 8, !tbaa !17
  %18 = getelementptr inbounds nuw i8, ptr %0, i64 184
  %19 = load ptr, ptr %18, align 8, !tbaa !38
  tail call void %16(ptr noundef %17, ptr noundef %19) #4
  store ptr null, ptr %18, align 8, !tbaa !38
  %20 = load ptr, ptr %2, align 8, !tbaa !16
  %21 = load ptr, ptr %4, align 8, !tbaa !17
  %22 = getelementptr inbounds nuw i8, ptr %0, i64 208
  %23 = load ptr, ptr %22, align 8, !tbaa !39
  tail call void %20(ptr noundef %21, ptr noundef %23) #4
  store ptr null, ptr %22, align 8, !tbaa !39
  %24 = load ptr, ptr %2, align 8, !tbaa !16
  %25 = load ptr, ptr %4, align 8, !tbaa !17
  %26 = getelementptr inbounds nuw i8, ptr %0, i64 232
  %27 = load ptr, ptr %26, align 8, !tbaa !40
  tail call void %24(ptr noundef %25, ptr noundef %27) #4
  store ptr null, ptr %26, align 8, !tbaa !40
  %28 = load ptr, ptr %2, align 8, !tbaa !16
  %29 = load ptr, ptr %4, align 8, !tbaa !17
  %30 = getelementptr inbounds nuw i8, ptr %0, i64 808
  %31 = load ptr, ptr %30, align 8, !tbaa !31
  tail call void %28(ptr noundef %29, ptr noundef %31) #4
  store ptr null, ptr %30, align 8, !tbaa !31
  %32 = getelementptr inbounds nuw i8, ptr %0, i64 800
  %33 = load ptr, ptr %32, align 8, !tbaa !32
  tail call void @BrotliSharedDictionaryDestroyInstance(ptr noundef %33) #4
  store ptr null, ptr %32, align 8, !tbaa !32
  %34 = load ptr, ptr %2, align 8, !tbaa !16
  %35 = load ptr, ptr %4, align 8, !tbaa !17
  %36 = getelementptr inbounds nuw i8, ptr %0, i64 136
  %37 = load ptr, ptr %36, align 8, !tbaa !23
  tail call void %34(ptr noundef %35, ptr noundef %37) #4
  store ptr null, ptr %36, align 8, !tbaa !23
  %38 = load ptr, ptr %2, align 8, !tbaa !16
  %39 = load ptr, ptr %4, align 8, !tbaa !17
  %40 = getelementptr inbounds nuw i8, ptr %0, i64 256
  %41 = load ptr, ptr %40, align 8, !tbaa !41
  tail call void %38(ptr noundef %39, ptr noundef %41) #4
  store ptr null, ptr %40, align 8, !tbaa !41
  ret void
}